target datalayout = "e-m:e-p270:32:32-p271:32:32-p272:64:64-i64:64-i128:128-f80:128-n8:16:32:64-S128"
target triple = "x86_64-pc-linux-gnu"

%"class.icu_77::StringPiece" = type <{ ptr, i32, [4 x i8] }>

; Function Attrs: mustprogress nounwind uwtable
define linkonce_odr noundef ptr @_ZNK6icu_7711StringPiece4dataEv(ptr noundef nonnull align 8 dereferenceable(12) %0) #0 comdat align 2 {
  %2 = alloca ptr, align 8
  store ptr %0, ptr %2, align 8, !tbaa !3
  %3 = load ptr, ptr %2, align 8
  %4 = getelementptr inbounds nuw %"class.icu_77::StringPiece", ptr %3, i32 0, i32 0
  %5 = load ptr, ptr %4, align 8, !tbaa !10
  ret ptr %5
}

; Function Attrs: mustprogress nounwind uwtable
define linkonce_odr noundef i32 @_ZNK6icu_7711StringPiece6lengthEv(ptr noundef nonnull align 8 dereferenceable(12) %0) #0 comdat align 2 {
  %2 = alloca ptr, align 8
  store ptr %0, ptr %2, align 8, !tbaa !3
  %3 = load ptr, ptr %2, align 8
  %4 = getelementptr inbounds nuw %"class.icu_77::StringPiece", ptr %3, i32 0, i32 1
  %5 = load i32, ptr %4, align 8, !tbaa !13
  ret i32 %5
}

; Function Attrs: mustprogress uwtable
define noundef i32 @_ZN6icu_7711StringPiece7compareES0_(ptr noundef nonnull align 8 dereferenceable(12) %0, ptr %1, i32 %2) #2 align 2 {
  %4 = alloca i32, align 4
  %5 = alloca %"class.icu_77::StringPiece", align 8
  %6 = alloca ptr, align 8
  %7 = alloca i32, align 4
  %8 = alloca i32, align 4
  %9 = alloca i8, align 1
  %10 = alloca i8, align 1
  %11 = getelementptr inbounds nuw { ptr, i32 }, ptr %5, i32 0, i32 0
  store ptr %1, ptr %11, align 8
  %12 = getelementptr inbounds nuw { ptr, i32 }, ptr %5, i32 0, i32 1
  store i32 %2, ptr %12, align 8
  store ptr %0, ptr %6, align 8, !tbaa !3
  %13 = load ptr, ptr %6, align 8
  call void @llvm.lifetime.start.p0(i64 4, ptr %7) #5
  store i32 0, ptr %7, align 4, !tbaa !14
  br label %14

14:                                               ; preds = %52, %3
  %15 = load i32, ptr %7, align 4, !tbaa !14
  %16 = call noundef i32 @_ZNK6icu_7711StringPiece6lengthEv(ptr noundef nonnull align 8 dereferenceable(12) %13)
  %17 = icmp slt i32 %15, %16
  br i1 %17, label %18, label %55

18:                                               ; preds = %14
  %19 = load i32, ptr %7, align 4, !tbaa !14
  %20 = call noundef i32 @_ZNK6icu_7711StringPiece6lengthEv(ptr noundef nonnull align 8 dereferenceable(12) %5)
  %21 = icmp eq i32 %19, %20
  br i1 %21, label %22, label %23

22:                                               ; preds = %18
  store i32 1, ptr %4, align 4
  store i32 1, ptr %8, align 4
  br label %61

23:                                               ; preds = %18
  call void @llvm.lifetime.start.p0(i64 1, ptr %9) #5
  %24 = call noundef ptr @_ZNK6icu_7711StringPiece4dataEv(ptr noundef nonnull align 8 dereferenceable(12) %13)
  %25 = load i32, ptr %7, align 4, !tbaa !14
  %26 = sext i32 %25 to i64
  %27 = getelementptr inbounds i8, ptr %24, i64 %26
  %28 = load i8, ptr %27, align 1, !tbaa !15
  store i8 %28, ptr %9, align 1, !tbaa !15
  call void @llvm.lifetime.start.p0(i64 1, ptr %10) #5
  %29 = call noundef ptr @_ZNK6icu_7711StringPiece4dataEv(ptr noundef nonnull align 8 dereferenceable(12) %5)
  %30 = load i32, ptr %7, align 4, !tbaa !14
  %31 = sext i32 %30 to i64
  %32 = getelementptr inbounds i8, ptr %29, i64 %31
  %33 = load i8, ptr %32, align 1, !tbaa !15
  store i8 %33, ptr %10, align 1, !tbaa !15
  %34 = load i8, ptr %9, align 1, !tbaa !15
  %35 = sext i8 %34 to i32
  %36 = load i8, ptr %10, align 1, !tbaa !15
  %37 = sext i8 %36 to i32
  %38 = icmp slt i32 %35, %37
  br i1 %38, label %39, label %40

39:                                               ; preds = %23
  store i32 -1, ptr %4, align 4
  store i32 1, ptr %8, align 4
  br label %49

40:                                               ; preds = %23
  %41 = load i8, ptr %9, align 1, !tbaa !15
  %42 = sext i8 %41 to i32
  %43 = load i8, ptr %10, align 1, !tbaa !15
  %44 = sext i8 %43 to i32
  %45 = icmp sgt i32 %42, %44
  br i1 %45, label %46, label %47

46:                                               ; preds = %40
  store i32 1, ptr %4, align 4
  store i32 1, ptr %8, align 4
  br label %49

47:                                               ; preds = %40
  br label %48

48:                                               ; preds = %47
  store i32 0, ptr %8, align 4
  br label %49

49:                                               ; preds = %48, %46, %39
  call void @llvm.lifetime.end.p0(i64 1, ptr %10) #5
  call void @llvm.lifetime.end.p0(i64 1, ptr %9) #5
  %50 = load i32, ptr %8, align 4
  switch i32 %50, label %61 [
    i32 0, label %51
  ]

51:                                               ; preds = %49
  br label %52

52:                                               ; preds = %51
  %53 = load i32, ptr %7, align 4, !tbaa !14
  %54 = add nsw i32 %53, 1
  store i32 %54, ptr %7, align 4, !tbaa !14
  br label %14, !llvm.loop !19

55:                                               ; preds = %14
  %56 = load i32, ptr %7, align 4, !tbaa !14
  %57 = call noundef i32 @_ZNK6icu_7711StringPiece6lengthEv(ptr noundef nonnull align 8 dereferenceable(12) %5)
  %58 = icmp slt i32 %56, %57
  br i1 %58, label %59, label %60

59:                                               ; preds = %55
  store i32 -1, ptr %4, align 4
  store i32 1, ptr %8, align 4
  br label %61

60:                                               ; preds = %55
  store i32 0, ptr %4, align 4
  store i32 1, ptr %8, align 4
  br label %61

61:                                               ; preds = %60, %59, %49, %22
  call void @llvm.lifetime.end.p0(i64 4, ptr %7) #5
  %62 = load i32, ptr %4, align 4
  ret i32 %62
}